(ikeras_frcnn.config
Config
p0
(dp1
S'use_vertical_flips'
p2
I00
sS'epoch_length'
p3
I600
sS'verbose'
p4
I01
sS'classifier_regr_std'
p5
(lp6
F8.0
aF8.0
aF4.0
aF4.0
asS'classifier_min_overlap'
p7
F0.1
sS'rot_90'
p8
I00
sS'class_mapping'
p9
(dp10
S'42'
p11
I41
sS'24'
p12
I25
sS'25'
p13
I11
sS'26'
p14
I21
sS'27'
p15
I14
sS'20'
p16
I27
sS'21'
p17
I7
sS'22'
p18
I40
sS'23'
p19
I13
sS'28'
p20
I18
sS'29'
p21
I28
sS'40'
p22
I1
sS'41'
p23
I38
sS'1'
p24
I10
sS'0'
p25
I24
sS'3'
p26
I36
sS'2'
p27
I8
sS'5'
p28
I32
sS'4'
p29
I5
sS'7'
p30
I37
sS'6'
p31
I29
sS'9'
p32
I6
sS'8'
p33
I31
sS'bg'
p34
I43
sS'39'
p35
I4
sS'12'
p36
I9
sS'11'
p37
I0
sS'10'
p38
I30
sS'13'
p39
I3
sS'38'
p40
I2
sS'15'
p41
I16
sS'14'
p42
I26
sS'17'
p43
I35
sS'16'
p44
I33
sS'33'
p45
I17
sS'18'
p46
I19
sS'31'
p47
I39
sS'30'
p48
I12
sS'37'
p49
I22
sS'36'
p50
I20
sS'35'
p51
I15
sS'34'
p52
I23
sS'19'
p53
I34
sS'32'
p54
I42
ssS'use_horizontal_flips'
p55
I00
sS'rpn_max_overlap'
p56
F0.7
sS'network'
p57
S'fcnet'
p58
sS'img_channel_mean'
p59
(lp60
F103.939
aF116.779
aF123.68
asS'balanced_classes'
p61
I00
sS'anchor_box_ratios'
p62
(lp63
(lp64
I1
aI1
aasS'num_features'
p65
I64
sS'img_scaling_factor'
p66
F1.0
sS'rpn_stride'
p67
I4
sS'num_rois'
p68
I32
sS'base_net_weights'
p69
S''
p70
sS'anchor_box_scales'
p71
(lp72
I8
aI16
aI32
aI64
asS'rpn_min_overlap'
p73
F0.3
sS'model_path'
p74
S'./location_model_weights.hdf5'
p75
sS'classifier_max_overlap'
p76
F0.5
sS'std_scaling'
p77
F4.0
sS'im_size'
p78
I600
sb.
